target datalayout = "e-m:e-p270:32:32-p271:32:32-p272:64:64-i64:64-i128:128-f80:128-n8:16:32:64-S128"
target triple = "x86_64-pc-linux-gnu"

%struct.slurmdb_cluster_cond_t = type { i16, ptr, ptr, i32, ptr, ptr, i64, i64, i16, i16 }

; Function Attrs: nounwind uwtable
define internal void @_free_cluster_cond_members(ptr noundef %0) #0 {
  %2 = alloca ptr, align 8
  store ptr %0, ptr %2, align 8
  %3 = load ptr, ptr %2, align 8
  %4 = icmp ne ptr %3, null
  br i1 %4, label %5, label %58

5:                                                ; preds = %1
  br label %6

6:                                                ; preds = %5
  %7 = load ptr, ptr %2, align 8
  %8 = getelementptr inbounds nuw %struct.slurmdb_cluster_cond_t, ptr %7, i32 0, i32 1
  %9 = load ptr, ptr %8, align 8
  %10 = icmp ne ptr %9, null
  br i1 %10, label %11, label %15

11:                                               ; preds = %6
  %12 = load ptr, ptr %2, align 8
  %13 = getelementptr inbounds nuw %struct.slurmdb_cluster_cond_t, ptr %12, i32 0, i32 1
  %14 = load ptr, ptr %13, align 8
  call void @list_destroy(ptr noundef %14)
  br label %15

15:                                               ; preds = %11, %6
  %16 = load ptr, ptr %2, align 8
  %17 = getelementptr inbounds nuw %struct.slurmdb_cluster_cond_t, ptr %16, i32 0, i32 1
  store ptr null, ptr %17, align 8
  br label %18

18:                                               ; preds = %15
  br label %19

19:                                               ; preds = %18
  %20 = load ptr, ptr %2, align 8
  %21 = getelementptr inbounds nuw %struct.slurmdb_cluster_cond_t, ptr %20, i32 0, i32 2
  %22 = load ptr, ptr %21, align 8
  %23 = icmp ne ptr %22, null
  br i1 %23, label %24, label %28

24:                                               ; preds = %19
  %25 = load ptr, ptr %2, align 8
  %26 = getelementptr inbounds nuw %struct.slurmdb_cluster_cond_t, ptr %25, i32 0, i32 2
  %27 = load ptr, ptr %26, align 8
  call void @list_destroy(ptr noundef %27)
  br label %28

28:                                               ; preds = %24, %19
  %29 = load ptr, ptr %2, align 8
  %30 = getelementptr inbounds nuw %struct.slurmdb_cluster_cond_t, ptr %29, i32 0, i32 2
  store ptr null, ptr %30, align 8
  br label %31

31:                                               ; preds = %28
  br label %32

32:                                               ; preds = %31
  %33 = load ptr, ptr %2, align 8
  %34 = getelementptr inbounds nuw %struct.slurmdb_cluster_cond_t, ptr %33, i32 0, i32 4
  %35 = load ptr, ptr %34, align 8
  %36 = icmp ne ptr %35, null
  br i1 %36, label %37, label %41

37:                                               ; preds = %32
  %38 = load ptr, ptr %2, align 8
  %39 = getelementptr inbounds nuw %struct.slurmdb_cluster_cond_t, ptr %38, i32 0, i32 4
  %40 = load ptr, ptr %39, align 8
  call void @list_destroy(ptr noundef %40)
  br label %41

41:                                               ; preds = %37, %32
  %42 = load ptr, ptr %2, align 8
  %43 = getelementptr inbounds nuw %struct.slurmdb_cluster_cond_t, ptr %42, i32 0, i32 4
  store ptr null, ptr %43, align 8
  br label %44

44:                                               ; preds = %41
  br label %45

45:                                               ; preds = %44
  %46 = load ptr, ptr %2, align 8
  %47 = getelementptr inbounds nuw %struct.slurmdb_cluster_cond_t, ptr %46, i32 0, i32 5
  %48 = load ptr, ptr %47, align 8
  %49 = icmp ne ptr %48, null
  br i1 %49, label %50, label %54

50:                                               ; preds = %45
  %51 = load ptr, ptr %2, align 8
  %52 = getelementptr inbounds nuw %struct.slurmdb_cluster_cond_t, ptr %51, i32 0, i32 5
  %53 = load ptr, ptr %52, align 8
  call void @list_destroy(ptr noundef %53)
  br label %54

54:                                               ; preds = %50, %45
  %55 = load ptr, ptr %2, align 8
  %56 = getelementptr inbounds nuw %struct.slurmdb_cluster_cond_t, ptr %55, i32 0, i32 5
  store ptr null, ptr %56, align 8
  br label %57

57:                                               ; preds = %54
  br label %58

58:                                               ; preds = %57, %1
  ret void
}

; Function Attrs: nounwind uwtable
define dso_local void @slurmdb_destroy_cluster_cond(ptr noundef %0) #0 {
  %2 = alloca ptr, align 8
  %3 = alloca ptr, align 8
  store ptr %0, ptr %2, align 8
  call void @llvm.lifetime.start.p0(i64 8, ptr %3) #10
  %4 = load ptr, ptr %2, align 8
  store ptr %4, ptr %3, align 8
  %5 = load ptr, ptr %3, align 8
  %6 = icmp ne ptr %5, null
  br i1 %6, label %7, label %9

7:                                                ; preds = %1
  %8 = load ptr, ptr %3, align 8
  call void @_free_cluster_cond_members(ptr noundef %8)
  call void @slurm_xfree(ptr noundef %3)
  br label %9

9:                                                ; preds = %7, %1
  call void @llvm.lifetime.end.p0(i64 8, ptr %3) #10
  ret void
}