; Function Attrs: nounwind uwtable
define dso_local void @slurmdb_destroy_cluster_cond(ptr noundef %0) local_unnamed_addr #0 {
  %2 = alloca ptr, align 8
  call void @llvm.lifetime.start.p0(i64 8, ptr nonnull %2) #19
  store ptr %0, ptr %2, align 8
  %.not = icmp eq ptr %0, null
  br i1 %.not, label %19, label %3

3:                                                ; preds = %1
  %4 = getelementptr inbounds nuw i8, ptr %0, i64 8
  %5 = load ptr, ptr %4, align 8
  %.not.i = icmp eq ptr %5, null
  br i1 %.not.i, label %7, label %6

6:                                                ; preds = %3
  tail call void @list_destroy(ptr noundef nonnull %5) #19
  br label %7

7:                                                ; preds = %6, %3
  store ptr null, ptr %4, align 8
  %8 = getelementptr inbounds nuw i8, ptr %0, i64 16
  %9 = load ptr, ptr %8, align 8
  %.not17.i = icmp eq ptr %9, null
  br i1 %.not17.i, label %11, label %10

10:                                               ; preds = %7
  tail call void @list_destroy(ptr noundef nonnull %9) #19
  br label %11

11:                                               ; preds = %10, %7
  store ptr null, ptr %8, align 8
  %12 = getelementptr inbounds nuw i8, ptr %0, i64 32
  %13 = load ptr, ptr %12, align 8
  %.not18.i = icmp eq ptr %13, null
  br i1 %.not18.i, label %15, label %14

14:                                               ; preds = %11
  tail call void @list_destroy(ptr noundef nonnull %13) #19
  br label %15

15:                                               ; preds = %14, %11
  store ptr null, ptr %12, align 8
  %16 = getelementptr inbounds nuw i8, ptr %0, i64 40
  %17 = load ptr, ptr %16, align 8
  %.not19.i = icmp eq ptr %17, null
  br i1 %.not19.i, label %_free_cluster_cond_members.exit, label %18

18:                                               ; preds = %15
  tail call void @list_destroy(ptr noundef nonnull %17) #19
  br label %_free_cluster_cond_members.exit

_free_cluster_cond_members.exit:                  ; preds = %15, %18
  store ptr null, ptr %16, align 8
  call void @slurm_xfree(ptr noundef nonnull %2) #19
  br label %19

19:                                               ; preds = %_free_cluster_cond_members.exit, %1
  call void @llvm.lifetime.end.p0(i64 8, ptr nonnull %2) #19
  ret void
}